; ModuleID = '43/65.c'
source_filename = "43/65.c"
target datalayout = "e-m:e-p270:32:32-p271:32:32-p272:64:64-i64:64-f80:128-n8:16:32:64-S128"
target triple = "x86_64-pc-linux-gnu"

@.str = private unnamed_addr constant [3 x i8] c"%d\00", align 1
@.str.1 = private unnamed_addr constant [7 x i8] c"%d %d\0A\00", align 1

; Function Attrs: noinline nounwind uwtable
define dso_local i32 @main() #0 {
  %1 = alloca i32, align 4
  %2 = alloca i32, align 4
  %3 = alloca i32, align 4
  %4 = alloca i32, align 4
  %5 = alloca i32, align 4
  store i32 0, i32* %1, align 4
  store i32 3, i32* %3, align 4
  %6 = call i32 (i8*, ...) @__isoc99_scanf(i8* getelementptr inbounds ([3 x i8], [3 x i8]* @.str, i64 0, i64 0), i32* %2)
  store i32 3, i32* %3, align 4
  br label %7

7:                                                ; preds = %29, %0
  %8 = load i32, i32* %3, align 4
  %9 = load i32, i32* %2, align 4
  %10 = sdiv i32 %9, 2
  %11 = icmp sle i32 %8, %10
  br i1 %11, label %12, label %32

12:                                               ; preds = %7
  %13 = load i32, i32* %2, align 4
  %14 = load i32, i32* %3, align 4
  %15 = sub nsw i32 %13, %14
  store i32 %15, i32* %4, align 4
  %16 = load i32, i32* %3, align 4
  %17 = call i32 @prime(i32 %16)
  %18 = icmp eq i32 %17, 1
  br i1 %18, label %19, label %27

19:                                               ; preds = %12
  %20 = load i32, i32* %4, align 4
  %21 = call i32 @prime(i32 %20)
  %22 = icmp eq i32 %21, 1
  br i1 %22, label %23, label %27

23:                                               ; preds = %19
  %24 = load i32, i32* %3, align 4
  %25 = load i32, i32* %4, align 4
  %26 = call i32 (i8*, ...) @printf(i8* getelementptr inbounds ([7 x i8], [7 x i8]* @.str.1, i64 0, i64 0), i32 %24, i32 %25)
  br label %28

27:                                               ; preds = %19, %12
  br label %29

28:                                               ; preds = %23
  br label %29

29:                                               ; preds = %28, %27
  %30 = load i32, i32* %3, align 4
  %31 = add nsw i32 %30, 2
  store i32 %31, i32* %3, align 4
  br label %7

32:                                               ; preds = %7
  %33 = load i32, i32* %1, align 4
  ret i32 %33
}

declare dso_local i32 @__isoc99_scanf(i8*, ...) #1

; Function Attrs: noinline nounwind uwtable
define dso_local i32 @prime(i32 %0) #0 {
  %2 = alloca i32, align 4
  %3 = alloca i32, align 4
  %4 = alloca i32, align 4
  %5 = alloca i32, align 4
  store i32 %0, i32* %3, align 4
  %6 = load i32, i32* %3, align 4
  %7 = sitofp i32 %6 to double
  %8 = call double @sqrt(double %7) #3
  %9 = fptosi double %8 to i32
  store i32 %9, i32* %5, align 4
  store i32 2, i32* %4, align 4
  br label %10

10:                                               ; preds = %21, %1
  %11 = load i32, i32* %4, align 4
  %12 = load i32, i32* %5, align 4
  %13 = icmp sle i32 %11, %12
  br i1 %13, label %14, label %24

14:                                               ; preds = %10
  %15 = load i32, i32* %3, align 4
  %16 = load i32, i32* %4, align 4
  %17 = srem i32 %15, %16
  %18 = icmp eq i32 %17, 0
  br i1 %18, label %19, label %20

19:                                               ; preds = %14
  br label %24

20:                                               ; preds = %14
  br label %21

21:                                               ; preds = %20
  %22 = load i32, i32* %4, align 4
  %23 = add nsw i32 %22, 1
  store i32 %23, i32* %4, align 4
  br label %10

24:                                               ; preds = %19, %10
  %25 = load i32, i32* %4, align 4
  %26 = load i32, i32* %5, align 4
  %27 = add nsw i32 %26, 1
  %28 = icmp eq i32 %25, %27
  br i1 %28, label %29, label %30

29:                                               ; preds = %24
  store i32 1, i32* %2, align 4
  br label %31

30:                                               ; preds = %24
  store i32 0, i32* %2, align 4
  br label %31

31:                                               ; preds = %30, %29
  %32 = load i32, i32* %2, align 4
  ret i32 %32
}

declare dso_local i32 @printf(i8*, ...) #1

; Function Attrs: nounwind
declare dso_local double @sqrt(double) #2


!llvm.module.flags = !{!0}
!llvm.ident = !{!1}

!0 = !{i32 1, !"wchar_size", i32 4}
!1 = !{!"clang version 10.0.0-4ubuntu1 "}
