; ModuleID = 'source-C-CXX/42/65.c'
source_filename = "source-C-CXX/42/65.c"
target datalayout = "e-m:e-p270:32:32-p271:32:32-p272:64:64-i64:64-f80:128-n8:16:32:64-S128"
target triple = "x86_64-pc-linux-gnu"

@.str = private unnamed_addr constant [3 x i8] c"%d\00", align 1
@.str.1 = private unnamed_addr constant [7 x i8] c"%d %d\0A\00", align 1

; Function Attrs: nofree nounwind sspstrong uwtable
define dso_local i32 @main() local_unnamed_addr #0 {
  %1 = alloca i32, align 4
  %2 = bitcast i32* %1 to i8*
  call void @llvm.lifetime.start.p0i8(i64 4, i8* nonnull %2) #4
  %3 = call i32 (i8*, ...) @__isoc99_scanf(i8* getelementptr inbounds ([3 x i8], [3 x i8]* @.str, i64 0, i64 0), i32* nonnull %1)
  %4 = load i32, i32* %1, align 4, !tbaa !5
  %5 = icmp slt i32 %4, 6
  br i1 %5, label %48, label %6

6:                                                ; preds = %0, %43
  %7 = phi i32 [ %45, %43 ], [ %4, %0 ]
  %8 = phi i32 [ %44, %43 ], [ 3, %0 ]
  %9 = sub nsw i32 %7, %8
  %10 = sitofp i32 %8 to double
  %11 = call double @sqrt(double %10) #4
  %12 = fptosi double %11 to i32
  %13 = icmp slt i32 %12, 2
  %14 = add i32 %12, 1
  br i1 %13, label %22, label %15

15:                                               ; preds = %6, %19
  %16 = phi i32 [ %20, %19 ], [ 2, %6 ]
  %17 = urem i32 %8, %16
  %18 = icmp eq i32 %17, 0
  br i1 %18, label %22, label %19

19:                                               ; preds = %15
  %20 = add nuw i32 %16, 1
  %21 = icmp eq i32 %16, %12
  br i1 %21, label %25, label %15, !llvm.loop !9

22:                                               ; preds = %15, %6
  %23 = phi i32 [ 2, %6 ], [ %16, %15 ]
  %24 = icmp eq i32 %23, %14
  br i1 %24, label %25, label %43

25:                                               ; preds = %19, %22
  %26 = sitofp i32 %9 to double
  %27 = call double @sqrt(double %26) #4
  %28 = fptosi double %27 to i32
  %29 = icmp slt i32 %28, 2
  %30 = add i32 %28, 1
  br i1 %29, label %38, label %31

31:                                               ; preds = %25, %35
  %32 = phi i32 [ %36, %35 ], [ 2, %25 ]
  %33 = srem i32 %9, %32
  %34 = icmp eq i32 %33, 0
  br i1 %34, label %38, label %35

35:                                               ; preds = %31
  %36 = add nuw i32 %32, 1
  %37 = icmp eq i32 %32, %28
  br i1 %37, label %41, label %31, !llvm.loop !9

38:                                               ; preds = %31, %25
  %39 = phi i32 [ 2, %25 ], [ %32, %31 ]
  %40 = icmp eq i32 %39, %30
  br i1 %40, label %41, label %43

41:                                               ; preds = %35, %38
  %42 = call i32 (i8*, ...) @printf(i8* nonnull dereferenceable(1) getelementptr inbounds ([7 x i8], [7 x i8]* @.str.1, i64 0, i64 0), i32 %8, i32 %9)
  br label %43

43:                                               ; preds = %22, %38, %41
  %44 = add nuw nsw i32 %8, 2
  %45 = load i32, i32* %1, align 4, !tbaa !5
  %46 = sdiv i32 %45, 2
  %47 = icmp sgt i32 %44, %46
  br i1 %47, label %48, label %6, !llvm.loop !11

48:                                               ; preds = %43, %0
  call void @llvm.lifetime.end.p0i8(i64 4, i8* nonnull %2) #4
  ret i32 0
}

; Function Attrs: argmemonly mustprogress nofree nosync nounwind willreturn
declare void @llvm.lifetime.start.p0i8(i64 immarg, i8* nocapture) #1

; Function Attrs: nofree nounwind
declare noundef i32 @__isoc99_scanf(i8* nocapture noundef readonly, ...) local_unnamed_addr #2

; Function Attrs: nofree nounwind sspstrong uwtable
define dso_local i32 @prime(i32 %0) local_unnamed_addr #0 {
  %2 = sitofp i32 %0 to double
  %3 = tail call double @sqrt(double %2) #4
  %4 = fptosi double %3 to i32
  %5 = icmp slt i32 %4, 2
  %6 = add i32 %4, 1
  br i1 %5, label %14, label %7

7:                                                ; preds = %1, %11
  %8 = phi i32 [ %12, %11 ], [ 2, %1 ]
  %9 = srem i32 %0, %8
  %10 = icmp eq i32 %9, 0
  br i1 %10, label %14, label %11

11:                                               ; preds = %7
  %12 = add nuw i32 %8, 1
  %13 = icmp eq i32 %8, %4
  br i1 %13, label %14, label %7, !llvm.loop !9

14:                                               ; preds = %11, %7, %1
  %15 = phi i32 [ 2, %1 ], [ %8, %7 ], [ %6, %11 ]
  %16 = icmp eq i32 %15, %6
  %17 = zext i1 %16 to i32
  ret i32 %17
}

; Function Attrs: nofree nounwind
declare noundef i32 @printf(i8* nocapture noundef readonly, ...) local_unnamed_addr #2

; Function Attrs: argmemonly mustprogress nofree nosync nounwind willreturn
declare void @llvm.lifetime.end.p0i8(i64 immarg, i8* nocapture) #1

; Function Attrs: mustprogress nofree nounwind willreturn
declare double @sqrt(double) local_unnamed_addr #3


!llvm.module.flags = !{!0, !1, !2, !3}
!llvm.ident = !{!4}

!0 = !{i32 1, !"wchar_size", i32 4}
!1 = !{i32 7, !"PIC Level", i32 2}
!2 = !{i32 7, !"PIE Level", i32 2}
!3 = !{i32 7, !"uwtable", i32 1}
!4 = !{!"clang version 13.0.0"}
!5 = !{!6, !6, i64 0}
!6 = !{!"int", !7, i64 0}
!7 = !{!"omnipotent char", !8, i64 0}
!8 = !{!"Simple C/C++ TBAA"}
!9 = distinct !{!9, !10}
!10 = !{!"llvm.loop.mustprogress"}
!11 = distinct !{!11, !10}
